; Function Attrs: nounwind uwtable
define dso_local void @array_free_iterator(ptr noundef %0) local_unnamed_addr #0 {
  %2 = getelementptr inbounds nuw i8, ptr %0, i64 24
  %3 = load i32, ptr %2, align 8
  %4 = icmp sgt i32 %3, 0
  br i1 %4, label %5, label %10

5:                                                ; preds = %1
  %6 = getelementptr inbounds nuw i8, ptr %0, i64 48
  %7 = load ptr, ptr %6, align 8
  tail call void @pfree(ptr noundef %7) #18
  %8 = getelementptr inbounds nuw i8, ptr %0, i64 56
  %9 = load ptr, ptr %8, align 8
  tail call void @pfree(ptr noundef %9) #18
  br label %10

10:                                               ; preds = %5, %1
  tail call void @pfree(ptr noundef nonnull %0) #18
  ret void
}